target datalayout = "e-m:e-p270:32:32-p271:32:32-p272:64:64-i64:64-i128:128-f80:128-n8:16:32:64-S128"
target triple = "x86_64-pc-linux-gnu"

%struct.OSSL_TIME = type { i64 }
%struct.ossl_cc_method_st = type { ptr, ptr, ptr, ptr, ptr, ptr, ptr, ptr, ptr, ptr, ptr, ptr, ptr, ptr }
%struct.helper = type { ptr, ptr, i64, ptr, %struct.ossl_statm_st, i32 }
%struct.ossl_statm_st = type { %struct.OSSL_TIME, %struct.OSSL_TIME, %struct.OSSL_TIME, %struct.OSSL_TIME, i8 }
%struct.pkt_info = type { ptr, i32, i32, i32 }

@.str.3 = private unnamed_addr constant [33 x i8] c"../openssl/test/quic_ackm_test.c\00", align 1
@ossl_cc_dummy_method = external constant %struct.ossl_cc_method_st, align 8

; Function Attrs: nounwind uwtable
define internal void @helper_destroy(ptr noundef %0) #0 {
  %2 = alloca ptr, align 8
  %3 = alloca i64, align 8
  store ptr %0, ptr %2, align 8, !tbaa !73
  call void @llvm.lifetime.start.p0(i64 8, ptr %3) #7
  %4 = load ptr, ptr %2, align 8, !tbaa !73
  %5 = getelementptr inbounds nuw %struct.helper, ptr %4, i32 0, i32 0
  %6 = load ptr, ptr %5, align 8, !tbaa !43
  %7 = icmp ne ptr %6, null
  br i1 %7, label %8, label %14

8:                                                ; preds = %1
  %9 = load ptr, ptr %2, align 8, !tbaa !73
  %10 = getelementptr inbounds nuw %struct.helper, ptr %9, i32 0, i32 0
  %11 = load ptr, ptr %10, align 8, !tbaa !43
  call void @ossl_ackm_free(ptr noundef %11)
  %12 = load ptr, ptr %2, align 8, !tbaa !73
  %13 = getelementptr inbounds nuw %struct.helper, ptr %12, i32 0, i32 0
  store ptr null, ptr %13, align 8, !tbaa !43
  br label %14

14:                                               ; preds = %8, %1
  %15 = load ptr, ptr %2, align 8, !tbaa !73
  %16 = getelementptr inbounds nuw %struct.helper, ptr %15, i32 0, i32 3
  %17 = load ptr, ptr %16, align 8, !tbaa !78
  %18 = icmp ne ptr %17, null
  br i1 %18, label %19, label %26

19:                                               ; preds = %14
  %20 = load ptr, ptr getelementptr inbounds nuw (%struct.ossl_cc_method_st, ptr @ossl_cc_dummy_method, i32 0, i32 1), align 8, !tbaa !88
  %21 = load ptr, ptr %2, align 8, !tbaa !73
  %22 = getelementptr inbounds nuw %struct.helper, ptr %21, i32 0, i32 3
  %23 = load ptr, ptr %22, align 8, !tbaa !78
  call void %20(ptr noundef %23)
  %24 = load ptr, ptr %2, align 8, !tbaa !73
  %25 = getelementptr inbounds nuw %struct.helper, ptr %24, i32 0, i32 3
  store ptr null, ptr %25, align 8, !tbaa !78
  br label %26

26:                                               ; preds = %19, %14
  %27 = load ptr, ptr %2, align 8, !tbaa !73
  %28 = getelementptr inbounds nuw %struct.helper, ptr %27, i32 0, i32 5
  %29 = load i32, ptr %28, align 8, !tbaa !75
  %30 = icmp ne i32 %29, 0
  br i1 %30, label %31, label %36

31:                                               ; preds = %26
  %32 = load ptr, ptr %2, align 8, !tbaa !73
  %33 = getelementptr inbounds nuw %struct.helper, ptr %32, i32 0, i32 4
  call void @ossl_statm_destroy(ptr noundef %33)
  %34 = load ptr, ptr %2, align 8, !tbaa !73
  %35 = getelementptr inbounds nuw %struct.helper, ptr %34, i32 0, i32 5
  store i32 0, ptr %35, align 8, !tbaa !75
  br label %36

36:                                               ; preds = %31, %26
  %37 = load ptr, ptr %2, align 8, !tbaa !73
  %38 = getelementptr inbounds nuw %struct.helper, ptr %37, i32 0, i32 1
  %39 = load ptr, ptr %38, align 8, !tbaa !21
  %40 = icmp ne ptr %39, null
  br i1 %40, label %41, label %71

41:                                               ; preds = %36
  store i64 0, ptr %3, align 8, !tbaa !11
  br label %42

42:                                               ; preds = %62, %41
  %43 = load i64, ptr %3, align 8, !tbaa !11
  %44 = load ptr, ptr %2, align 8, !tbaa !73
  %45 = getelementptr inbounds nuw %struct.helper, ptr %44, i32 0, i32 2
  %46 = load i64, ptr %45, align 8, !tbaa !79
  %47 = icmp ult i64 %43, %46
  br i1 %47, label %48, label %65

48:                                               ; preds = %42
  %49 = load ptr, ptr %2, align 8, !tbaa !73
  %50 = getelementptr inbounds nuw %struct.helper, ptr %49, i32 0, i32 1
  %51 = load ptr, ptr %50, align 8, !tbaa !21
  %52 = load i64, ptr %3, align 8, !tbaa !11
  %53 = getelementptr inbounds nuw %struct.pkt_info, ptr %51, i64 %52
  %54 = getelementptr inbounds nuw %struct.pkt_info, ptr %53, i32 0, i32 0
  %55 = load ptr, ptr %54, align 8, !tbaa !28
  call void @CRYPTO_free(ptr noundef %55, ptr noundef @.str.3, i32 noundef 77)
  %56 = load ptr, ptr %2, align 8, !tbaa !73
  %57 = getelementptr inbounds nuw %struct.helper, ptr %56, i32 0, i32 1
  %58 = load ptr, ptr %57, align 8, !tbaa !21
  %59 = load i64, ptr %3, align 8, !tbaa !11
  %60 = getelementptr inbounds nuw %struct.pkt_info, ptr %58, i64 %59
  %61 = getelementptr inbounds nuw %struct.pkt_info, ptr %60, i32 0, i32 0
  store ptr null, ptr %61, align 8, !tbaa !28
  br label %62

62:                                               ; preds = %48
  %63 = load i64, ptr %3, align 8, !tbaa !11
  %64 = add i64 %63, 1
  store i64 %64, ptr %3, align 8, !tbaa !11
  br label %42, !llvm.loop !89

65:                                               ; preds = %42
  %66 = load ptr, ptr %2, align 8, !tbaa !73
  %67 = getelementptr inbounds nuw %struct.helper, ptr %66, i32 0, i32 1
  %68 = load ptr, ptr %67, align 8, !tbaa !21
  call void @CRYPTO_free(ptr noundef %68, ptr noundef @.str.3, i32 noundef 81)
  %69 = load ptr, ptr %2, align 8, !tbaa !73
  %70 = getelementptr inbounds nuw %struct.helper, ptr %69, i32 0, i32 1
  store ptr null, ptr %70, align 8, !tbaa !21
  br label %71

71:                                               ; preds = %65, %36
  call void @llvm.lifetime.end.p0(i64 8, ptr %3) #7
  ret void
}