; Function Attrs: nounwind uwtable
define internal fastcc void @helper_destroy(ptr noundef nonnull %0) unnamed_addr #0 {
  %2 = load ptr, ptr %0, align 8, !tbaa !15
  %.not = icmp eq ptr %2, null
  br i1 %.not, label %4, label %3

3:                                                ; preds = %1
  tail call void @ossl_ackm_free(ptr noundef nonnull %2) #9
  store ptr null, ptr %0, align 8, !tbaa !15
  br label %4

4:                                                ; preds = %3, %1
  %5 = getelementptr inbounds nuw i8, ptr %0, i64 24
  %6 = load ptr, ptr %5, align 8, !tbaa !91
  %.not20 = icmp eq ptr %6, null
  br i1 %.not20, label %9, label %7

7:                                                ; preds = %4
  %8 = load ptr, ptr getelementptr inbounds nuw (i8, ptr @ossl_cc_dummy_method, i64 8), align 8, !tbaa !96
  tail call void %8(ptr noundef nonnull %6) #9
  store ptr null, ptr %5, align 8, !tbaa !91
  br label %9

9:                                                ; preds = %7, %4
  %10 = getelementptr inbounds nuw i8, ptr %0, i64 72
  %11 = load i32, ptr %10, align 8, !tbaa !88
  %.not21 = icmp eq i32 %11, 0
  br i1 %.not21, label %14, label %12

12:                                               ; preds = %9
  %13 = getelementptr inbounds nuw i8, ptr %0, i64 32
  tail call void @ossl_statm_destroy(ptr noundef nonnull %13) #9
  store i32 0, ptr %10, align 8, !tbaa !88
  br label %14

14:                                               ; preds = %12, %9
  %15 = getelementptr inbounds nuw i8, ptr %0, i64 8
  %16 = load ptr, ptr %15, align 8, !tbaa !25
  %.not22 = icmp eq ptr %16, null
  br i1 %.not22, label %28, label %.preheader

.preheader:                                       ; preds = %14
  %17 = getelementptr inbounds nuw i8, ptr %0, i64 16
  %18 = load i64, ptr %17, align 8, !tbaa !92
  %.not24 = icmp eq i64 %18, 0
  br i1 %.not24, label %._crit_edge, label %.lr.ph

.lr.ph:                                           ; preds = %.preheader, %.lr.ph
  %19 = phi ptr [ %22, %.lr.ph ], [ %16, %.preheader ]
  %.023 = phi i64 [ %24, %.lr.ph ], [ 0, %.preheader ]
  %20 = getelementptr inbounds nuw %struct.pkt_info, ptr %19, i64 %.023
  %21 = load ptr, ptr %20, align 8, !tbaa !26
  tail call void @CRYPTO_free(ptr noundef %21, ptr noundef nonnull @.str.3, i32 noundef 77) #9
  %22 = load ptr, ptr %15, align 8, !tbaa !25
  %23 = getelementptr inbounds nuw %struct.pkt_info, ptr %22, i64 %.023
  store ptr null, ptr %23, align 8, !tbaa !26
  %24 = add nuw i64 %.023, 1
  %25 = load i64, ptr %17, align 8, !tbaa !92
  %26 = icmp ult i64 %24, %25
  br i1 %26, label %.lr.ph, label %._crit_edge, !llvm.loop !97

._crit_edge:                                      ; preds = %.lr.ph, %.preheader
  %27 = phi ptr [ %16, %.preheader ], [ %22, %.lr.ph ]
  tail call void @CRYPTO_free(ptr noundef nonnull %27, ptr noundef nonnull @.str.3, i32 noundef 81) #9
  store ptr null, ptr %15, align 8, !tbaa !25
  br label %28

28:                                               ; preds = %._crit_edge, %14
  ret void
}